; Function Attrs: nounwind uwtable
define dso_local void @rebuild_placeholder_attr_needed(ptr noundef %0) local_unnamed_addr #0 {
  %2 = getelementptr inbounds nuw i8, ptr %0, i64 280
  %3 = load ptr, ptr %2, align 8
  %4 = getelementptr inbounds nuw i8, ptr %3, i64 4
  %.not = icmp eq ptr %3, null
  br i1 %.not, label %._crit_edge, label %.lr.ph

.lr.ph:                                           ; preds = %1
  %5 = getelementptr inbounds nuw i8, ptr %3, i64 16
  %6 = load i32, ptr %4, align 4
  %7 = icmp sgt i32 %6, 0
  br i1 %7, label %.lr.ph18, label %._crit_edge

._crit_edge:                                      ; preds = %.lr.ph18, %.lr.ph, %1
  ret void

.lr.ph18:                                         ; preds = %.lr.ph, %.lr.ph18
  %indvars.iv = phi i64 [ %indvars.iv.next, %.lr.ph18 ], [ 0, %.lr.ph ]
  %8 = load ptr, ptr %5, align 8
  %9 = getelementptr inbounds nuw %union.ListCell, ptr %8, i64 %indvars.iv
  %10 = load ptr, ptr %9, align 8
  %11 = getelementptr inbounds nuw i8, ptr %10, i64 8
  %12 = load ptr, ptr %11, align 8
  %13 = getelementptr inbounds nuw i8, ptr %12, i64 8
  %14 = load ptr, ptr %13, align 8
  %15 = tail call ptr @pull_var_clause(ptr noundef %14, i32 noundef 26) #5
  %16 = getelementptr inbounds nuw i8, ptr %10, i64 16
  %17 = load ptr, ptr %16, align 8
  tail call void @add_vars_to_attr_needed(ptr noundef %0, ptr noundef %15, ptr noundef %17) #5
  tail call void @list_free(ptr noundef %15) #5
  %indvars.iv.next = add nuw nsw i64 %indvars.iv, 1
  %18 = load i32, ptr %4, align 4
  %19 = sext i32 %18 to i64
  %20 = icmp slt i64 %indvars.iv.next, %19
  br i1 %20, label %.lr.ph18, label %._crit_edge
}